; Function Attrs: nounwind sspstrong uwtable
define internal range(i64 3, 5) i64 @rb_complex_infinite_p(i64 noundef %0) #0 {
  %2 = inttoptr i64 %0 to ptr
  %3 = getelementptr inbounds nuw i8, ptr %2, i64 16
  %4 = load i64, ptr %3, align 8, !tbaa !15
  %5 = and i64 %4, 1
  %6 = icmp ne i64 %5, 0
  %7 = and i64 %4, 3
  %8 = icmp eq i64 %7, 2
  %or.cond.i.i = or i1 %6, %8
  br i1 %or.cond.i.i, label %f_infinite_p.exit.thread, label %9

9:                                                ; preds = %1
  %10 = icmp eq i64 %4, 0
  %11 = and i64 %4, 6
  %12 = icmp ne i64 %11, 0
  %13 = or i1 %10, %12
  br i1 %13, label %f_infinite_p.exit, label %rb_integer_type_p.exit.i.i

rb_integer_type_p.exit.i.i:                       ; preds = %9
  %14 = inttoptr i64 %4 to ptr
  %15 = load i64, ptr %14, align 8, !tbaa !19
  %16 = and i64 %15, 31
  switch i64 %16, label %f_infinite_p.exit [
    i64 10, label %f_infinite_p.exit.thread
    i64 15, label %f_infinite_p.exit.thread
    i64 4, label %rb_float_value_inline.exit.i
  ]

rb_float_value_inline.exit.i:                     ; preds = %rb_integer_type_p.exit.i.i
  %17 = getelementptr inbounds nuw i8, ptr %14, i64 16
  %18 = load double, ptr %17, align 8, !tbaa !21
  %19 = tail call double @llvm.fabs.f64(double %18) #22
  %20 = fcmp oeq double %19, 0x7FF0000000000000
  br i1 %20, label %f_infinite_p.exit.thread13, label %f_infinite_p.exit.thread

f_infinite_p.exit:                                ; preds = %rb_integer_type_p.exit.i.i, %9
  %21 = load i64, ptr @id_infinite_p, align 8, !tbaa !11
  %22 = tail call i64 @rb_funcallv(i64 noundef %4, i64 noundef %21, i32 noundef 0, ptr noundef null) #17
  %23 = and i64 %22, -5
  %.not22 = icmp eq i64 %23, 0
  br i1 %.not22, label %f_infinite_p.exit.thread, label %f_infinite_p.exit.thread13

f_infinite_p.exit.thread:                         ; preds = %rb_integer_type_p.exit.i.i, %rb_integer_type_p.exit.i.i, %1, %rb_float_value_inline.exit.i, %f_infinite_p.exit
  %24 = getelementptr inbounds nuw i8, ptr %2, i64 24
  %25 = load i64, ptr %24, align 8, !tbaa !18
  %26 = and i64 %25, 1
  %27 = icmp ne i64 %26, 0
  %28 = and i64 %25, 3
  %29 = icmp eq i64 %28, 2
  %or.cond.i.i4 = or i1 %27, %29
  br i1 %or.cond.i.i4, label %f_infinite_p.exit10.thread, label %30

30:                                               ; preds = %f_infinite_p.exit.thread
  %31 = icmp eq i64 %25, 0
  %32 = and i64 %25, 6
  %33 = icmp ne i64 %32, 0
  %34 = or i1 %31, %33
  br i1 %34, label %f_infinite_p.exit10, label %rb_integer_type_p.exit.i.i5

rb_integer_type_p.exit.i.i5:                      ; preds = %30
  %35 = inttoptr i64 %25 to ptr
  %36 = load i64, ptr %35, align 8, !tbaa !19
  %37 = and i64 %36, 31
  switch i64 %37, label %f_infinite_p.exit10 [
    i64 10, label %f_infinite_p.exit10.thread
    i64 15, label %f_infinite_p.exit10.thread
    i64 4, label %rb_float_value_inline.exit.i9
  ]

rb_float_value_inline.exit.i9:                    ; preds = %rb_integer_type_p.exit.i.i5
  %38 = getelementptr inbounds nuw i8, ptr %35, i64 16
  %39 = load double, ptr %38, align 8, !tbaa !21
  %40 = tail call double @llvm.fabs.f64(double %39) #22
  %41 = fcmp oeq double %40, 0x7FF0000000000000
  br i1 %41, label %f_infinite_p.exit.thread13, label %f_infinite_p.exit10.thread

f_infinite_p.exit10:                              ; preds = %rb_integer_type_p.exit.i.i5, %30
  %42 = load i64, ptr @id_infinite_p, align 8, !tbaa !11
  %43 = tail call i64 @rb_funcallv(i64 noundef %25, i64 noundef %42, i32 noundef 0, ptr noundef null) #17
  %44 = and i64 %43, -5
  %.not = icmp eq i64 %44, 0
  br i1 %.not, label %f_infinite_p.exit10.thread, label %f_infinite_p.exit.thread13

f_infinite_p.exit.thread13:                       ; preds = %rb_float_value_inline.exit.i9, %rb_float_value_inline.exit.i, %f_infinite_p.exit10, %f_infinite_p.exit
  br label %f_infinite_p.exit10.thread

f_infinite_p.exit10.thread:                       ; preds = %rb_integer_type_p.exit.i.i5, %rb_integer_type_p.exit.i.i5, %f_infinite_p.exit.thread, %rb_float_value_inline.exit.i9, %f_infinite_p.exit10, %f_infinite_p.exit.thread13
  %.0 = phi i64 [ 3, %f_infinite_p.exit.thread13 ], [ 4, %f_infinite_p.exit10 ], [ 4, %rb_float_value_inline.exit.i9 ], [ 4, %f_infinite_p.exit.thread ], [ 4, %rb_integer_type_p.exit.i.i5 ], [ 4, %rb_integer_type_p.exit.i.i5 ]
  ret i64 %.0
}